target datalayout = "e-m:e-p270:32:32-p271:32:32-p272:64:64-i64:64-i128:128-f80:128-n8:16:32:64-S128"
target triple = "x86_64-pc-linux-gnu"

; Function Attrs: mustprogress nounwind uwtable
define linkonce_odr dso_local noundef double @_ZSt3absd(double noundef %0) #7 comdat {
  %2 = alloca double, align 8
  store double %0, ptr %2, align 8
  %3 = load double, ptr %2, align 8
  %4 = call double @llvm.fabs.f64(double %3)
  ret double %4
}

; Function Attrs: mustprogress nounwind uwtable
define internal noundef double @_ZN6cephesL7pseriesEddd(double noundef %0, double noundef %1, double noundef %2) #7 {
  %4 = alloca double, align 8
  %5 = alloca double, align 8
  %6 = alloca double, align 8
  %7 = alloca double, align 8
  %8 = alloca double, align 8
  %9 = alloca double, align 8
  %10 = alloca double, align 8
  %11 = alloca double, align 8
  %12 = alloca double, align 8
  %13 = alloca double, align 8
  %14 = alloca double, align 8
  store double %0, ptr %4, align 8
  store double %1, ptr %5, align 8
  store double %2, ptr %6, align 8
  %15 = load double, ptr %4, align 8
  %16 = fdiv double 1.000000e+00, %15
  store double %16, ptr %14, align 8
  %17 = load double, ptr %5, align 8
  %18 = fsub double 1.000000e+00, %17
  %19 = load double, ptr %6, align 8
  %20 = fmul double %18, %19
  store double %20, ptr %9, align 8
  %21 = load double, ptr %9, align 8
  %22 = load double, ptr %4, align 8
  %23 = fadd double %22, 1.000000e+00
  %24 = fdiv double %21, %23
  store double %24, ptr %10, align 8
  %25 = load double, ptr %10, align 8
  store double %25, ptr %12, align 8
  %26 = load double, ptr %9, align 8
  store double %26, ptr %8, align 8
  store double 2.000000e+00, ptr %11, align 8
  store double 0.000000e+00, ptr %7, align 8
  %27 = load double, ptr %14, align 8
  %28 = fmul double 0x3CA0000000000000, %27
  store double %28, ptr %13, align 8
  br label %29

29:                                               ; preds = %34, %3
  %30 = load double, ptr %10, align 8
  %31 = call noundef double @_ZSt3absd(double noundef %30)
  %32 = load double, ptr %13, align 8
  %33 = fcmp ogt double %31, %32
  br i1 %33, label %34, label %55

34:                                               ; preds = %29
  %35 = load double, ptr %11, align 8
  %36 = load double, ptr %5, align 8
  %37 = fsub double %35, %36
  %38 = load double, ptr %6, align 8
  %39 = fmul double %37, %38
  %40 = load double, ptr %11, align 8
  %41 = fdiv double %39, %40
  store double %41, ptr %9, align 8
  %42 = load double, ptr %9, align 8
  %43 = load double, ptr %8, align 8
  %44 = fmul double %43, %42
  store double %44, ptr %8, align 8
  %45 = load double, ptr %8, align 8
  %46 = load double, ptr %4, align 8
  %47 = load double, ptr %11, align 8
  %48 = fadd double %46, %47
  %49 = fdiv double %45, %48
  store double %49, ptr %10, align 8
  %50 = load double, ptr %10, align 8
  %51 = load double, ptr %7, align 8
  %52 = fadd double %51, %50
  store double %52, ptr %7, align 8
  %53 = load double, ptr %11, align 8
  %54 = fadd double %53, 1.000000e+00
  store double %54, ptr %11, align 8
  br label %29, !llvm.loop !16

55:                                               ; preds = %29
  %56 = load double, ptr %12, align 8
  %57 = load double, ptr %7, align 8
  %58 = fadd double %57, %56
  store double %58, ptr %7, align 8
  %59 = load double, ptr %14, align 8
  %60 = load double, ptr %7, align 8
  %61 = fadd double %60, %59
  store double %61, ptr %7, align 8
  %62 = load double, ptr %4, align 8
  %63 = load double, ptr %6, align 8
  %64 = call double @log(double noundef %63) #3
  %65 = fmul double %62, %64
  store double %65, ptr %9, align 8
  %66 = load double, ptr %4, align 8
  %67 = load double, ptr %5, align 8
  %68 = fadd double %66, %67
  %69 = fcmp olt double %68, 0x406573FAE561F647
  br i1 %69, label %70, label %92

70:                                               ; preds = %55
  %71 = load double, ptr %9, align 8
  %72 = call noundef double @_ZSt3absd(double noundef %71)
  %73 = fcmp olt double %72, 0x40862E42FEFA39EF
  br i1 %73, label %74, label %92

74:                                               ; preds = %70
  %75 = load double, ptr %4, align 8
  %76 = load double, ptr %5, align 8
  %77 = fadd double %75, %76
  %78 = call double @tgamma(double noundef %77) #3
  %79 = load double, ptr %4, align 8
  %80 = call double @tgamma(double noundef %79) #3
  %81 = load double, ptr %5, align 8
  %82 = call double @tgamma(double noundef %81) #3
  %83 = fmul double %80, %82
  %84 = fdiv double %78, %83
  store double %84, ptr %8, align 8
  %85 = load double, ptr %7, align 8
  %86 = load double, ptr %8, align 8
  %87 = fmul double %85, %86
  %88 = load double, ptr %6, align 8
  %89 = load double, ptr %4, align 8
  %90 = call double @pow(double noundef %88, double noundef %89) #3
  %91 = fmul double %87, %90
  store double %91, ptr %7, align 8
  br label %115

92:                                               ; preds = %70, %55
  %93 = load double, ptr %4, align 8
  %94 = load double, ptr %5, align 8
  %95 = fadd double %93, %94
  %96 = call double @lgamma(double noundef %95) #3
  %97 = load double, ptr %4, align 8
  %98 = call double @lgamma(double noundef %97) #3
  %99 = fsub double %96, %98
  %100 = load double, ptr %5, align 8
  %101 = call double @lgamma(double noundef %100) #3
  %102 = fsub double %99, %101
  %103 = load double, ptr %9, align 8
  %104 = fadd double %102, %103
  %105 = load double, ptr %7, align 8
  %106 = call double @log(double noundef %105) #3
  %107 = fadd double %104, %106
  store double %107, ptr %8, align 8
  %108 = load double, ptr %8, align 8
  %109 = fcmp olt double %108, 0xC086232BDD7ABCD2
  br i1 %109, label %110, label %111

110:                                              ; preds = %92
  store double 0.000000e+00, ptr %7, align 8
  br label %114

111:                                              ; preds = %92
  %112 = load double, ptr %8, align 8
  %113 = call double @exp(double noundef %112) #3
  store double %113, ptr %7, align 8
  br label %114

114:                                              ; preds = %111, %110
  br label %115

115:                                              ; preds = %114, %74
  %116 = load double, ptr %7, align 8
  ret double %116
}