; Function Attrs: mustprogress nounwind uwtable
define internal fastcc noundef double @_ZN6cephesL7pseriesEddd(double noundef %0, double noundef %1, double noundef %2) unnamed_addr #6 {
  %4 = fdiv double 1.000000e+00, %0
  %5 = fsub double 1.000000e+00, %1
  %6 = fmul double %5, %2
  %7 = fadd double %0, 1.000000e+00
  %8 = fdiv double %6, %7
  %9 = fmul double %4, 0x3CA0000000000000
  %10 = tail call noundef double @llvm.fabs.f64(double %8)
  %11 = fcmp ogt double %10, %9
  br i1 %11, label %.lr.ph, label %._crit_edge

.lr.ph:                                           ; preds = %3, %.lr.ph
  %.056 = phi double [ %18, %.lr.ph ], [ 0.000000e+00, %3 ]
  %.04855 = phi double [ %15, %.lr.ph ], [ %6, %3 ]
  %.04954 = phi double [ %19, %.lr.ph ], [ 2.000000e+00, %3 ]
  %12 = fsub double %.04954, %1
  %13 = fmul double %12, %2
  %14 = fdiv double %13, %.04954
  %15 = fmul double %.04855, %14
  %16 = fadd double %.04954, %0
  %17 = fdiv double %15, %16
  %18 = fadd double %.056, %17
  %19 = fadd double %.04954, 1.000000e+00
  %20 = tail call noundef double @llvm.fabs.f64(double %17)
  %21 = fcmp ogt double %20, %9
  br i1 %21, label %.lr.ph, label %._crit_edge, !llvm.loop !37

._crit_edge:                                      ; preds = %.lr.ph, %3
  %.0.lcssa = phi double [ 0.000000e+00, %3 ], [ %18, %.lr.ph ]
  %22 = fadd double %8, %.0.lcssa
  %23 = fadd double %4, %22
  %24 = tail call double @log(double noundef %2) #19
  %25 = fmul double %24, %0
  %26 = fadd double %0, %1
  %27 = fcmp olt double %26, 0x406573FAE561F647
  %28 = tail call double @llvm.fabs.f64(double %25)
  %29 = fcmp olt double %28, 0x40862E42FEFA39EF
  %or.cond = select i1 %27, i1 %29, i1 false
  br i1 %or.cond, label %30, label %39

30:                                               ; preds = %._crit_edge
  %31 = tail call double @tgamma(double noundef %26) #19
  %32 = tail call double @tgamma(double noundef %0) #19
  %33 = tail call double @tgamma(double noundef %1) #19
  %34 = fmul double %32, %33
  %35 = fdiv double %31, %34
  %36 = fmul double %23, %35
  %37 = tail call double @pow(double noundef %2, double noundef %0) #19
  %38 = fmul double %37, %36
  br label %51

39:                                               ; preds = %._crit_edge
  %40 = tail call double @lgamma(double noundef %26) #19
  %41 = tail call double @lgamma(double noundef %0) #19
  %42 = fsub double %40, %41
  %43 = tail call double @lgamma(double noundef %1) #19
  %44 = fsub double %42, %43
  %45 = fadd double %25, %44
  %46 = tail call double @log(double noundef %23) #19
  %47 = fadd double %46, %45
  %48 = fcmp olt double %47, 0xC086232BDD7ABCD2
  br i1 %48, label %51, label %49

49:                                               ; preds = %39
  %50 = tail call double @exp(double noundef %47) #19
  br label %51

51:                                               ; preds = %39, %49, %30
  %.1 = phi double [ %38, %30 ], [ %50, %49 ], [ 0.000000e+00, %39 ]
  ret double %.1
}